#include <math.h>
#include <stdio.h>
#include <stdlib.h>
#include <string.h>

int main()
{
    double s,a,b,c,d,angle,S,x;
    scanf("%lf%lf%lf%lf%lf",&a,&b,&c,&d,&angle);
    s = (a+b+c+d)/2; 
    x=pow(cos(angle*3.1415926/360),2);
    S = sqrt((s-a)*(s-b)*(s-c)*(s-d) - a*b*c*d*x); 
    if((s-a)*(s-b)*(s-c)*(s-d) - a*b*c*d*x<0)
    {
       printf("Invalid input");
     }
     else     
     {
        printf("%.4lf",S);
      }
    return 0;
}